; ModuleID = '52/351.c'
source_filename = "52/351.c"
target datalayout = "e-m:e-p270:32:32-p271:32:32-p272:64:64-i64:64-f80:128-n8:16:32:64-S128"
target triple = "x86_64-pc-linux-gnu"

@.str = private unnamed_addr constant [5 x i8] c"%d%d\00", align 1
@.str.1 = private unnamed_addr constant [3 x i8] c"%d\00", align 1
@.str.2 = private unnamed_addr constant [4 x i8] c"%d \00", align 1

; Function Attrs: noinline nounwind uwtable
define dso_local i32 @main(i32 %0, i8** %1) #0 {
  %3 = alloca i32, align 4
  %4 = alloca i32, align 4
  %5 = alloca i8**, align 8
  %6 = alloca i32, align 4
  %7 = alloca i32, align 4
  %8 = alloca i32, align 4
  %9 = alloca i32, align 4
  %10 = alloca i32, align 4
  %11 = alloca i32, align 4
  %12 = alloca i32, align 4
  %13 = alloca [100 x i32], align 16
  store i32 0, i32* %3, align 4
  store i32 %0, i32* %4, align 4
  store i8** %1, i8*** %5, align 8
  %14 = call i32 (i8*, ...) @__isoc99_scanf(i8* getelementptr inbounds ([5 x i8], [5 x i8]* @.str, i64 0, i64 0), i32* %10, i32* %6)
  store i32 0, i32* %11, align 4
  br label %15

15:                                               ; preds = %25, %2
  %16 = load i32, i32* %11, align 4
  %17 = load i32, i32* %10, align 4
  %18 = icmp slt i32 %16, %17
  br i1 %18, label %19, label %28

19:                                               ; preds = %15
  %20 = call i32 (i8*, ...) @__isoc99_scanf(i8* getelementptr inbounds ([3 x i8], [3 x i8]* @.str.1, i64 0, i64 0), i32* %7)
  %21 = load i32, i32* %7, align 4
  %22 = load i32, i32* %11, align 4
  %23 = sext i32 %22 to i64
  %24 = getelementptr inbounds [100 x i32], [100 x i32]* %13, i64 0, i64 %23
  store i32 %21, i32* %24, align 4
  br label %25

25:                                               ; preds = %19
  %26 = load i32, i32* %11, align 4
  %27 = add nsw i32 %26, 1
  store i32 %27, i32* %11, align 4
  br label %15

28:                                               ; preds = %15
  store i32 0, i32* %11, align 4
  br label %29

29:                                               ; preds = %62, %28
  %30 = load i32, i32* %11, align 4
  %31 = load i32, i32* %6, align 4
  %32 = icmp slt i32 %30, %31
  br i1 %32, label %33, label %65

33:                                               ; preds = %29
  %34 = getelementptr inbounds [100 x i32], [100 x i32]* %13, i64 0, i64 1
  %35 = load i32, i32* %34, align 4
  store i32 %35, i32* %9, align 4
  %36 = getelementptr inbounds [100 x i32], [100 x i32]* %13, i64 0, i64 0
  %37 = load i32, i32* %36, align 16
  %38 = getelementptr inbounds [100 x i32], [100 x i32]* %13, i64 0, i64 1
  store i32 %37, i32* %38, align 4
  store i32 1, i32* %8, align 4
  br label %39

39:                                               ; preds = %56, %33
  %40 = load i32, i32* %8, align 4
  %41 = load i32, i32* %10, align 4
  %42 = sub nsw i32 %41, 1
  %43 = icmp slt i32 %40, %42
  br i1 %43, label %44, label %59

44:                                               ; preds = %39
  %45 = load i32, i32* %8, align 4
  %46 = add nsw i32 %45, 1
  %47 = sext i32 %46 to i64
  %48 = getelementptr inbounds [100 x i32], [100 x i32]* %13, i64 0, i64 %47
  %49 = load i32, i32* %48, align 4
  store i32 %49, i32* %12, align 4
  %50 = load i32, i32* %9, align 4
  %51 = load i32, i32* %8, align 4
  %52 = add nsw i32 %51, 1
  %53 = sext i32 %52 to i64
  %54 = getelementptr inbounds [100 x i32], [100 x i32]* %13, i64 0, i64 %53
  store i32 %50, i32* %54, align 4
  %55 = load i32, i32* %12, align 4
  store i32 %55, i32* %9, align 4
  br label %56

56:                                               ; preds = %44
  %57 = load i32, i32* %8, align 4
  %58 = add nsw i32 %57, 1
  store i32 %58, i32* %8, align 4
  br label %39

59:                                               ; preds = %39
  %60 = load i32, i32* %12, align 4
  %61 = getelementptr inbounds [100 x i32], [100 x i32]* %13, i64 0, i64 0
  store i32 %60, i32* %61, align 16
  br label %62

62:                                               ; preds = %59
  %63 = load i32, i32* %11, align 4
  %64 = add nsw i32 %63, 1
  store i32 %64, i32* %11, align 4
  br label %29

65:                                               ; preds = %29
  store i32 0, i32* %11, align 4
  br label %66

66:                                               ; preds = %77, %65
  %67 = load i32, i32* %11, align 4
  %68 = load i32, i32* %10, align 4
  %69 = sub nsw i32 %68, 1
  %70 = icmp slt i32 %67, %69
  br i1 %70, label %71, label %80

71:                                               ; preds = %66
  %72 = load i32, i32* %11, align 4
  %73 = sext i32 %72 to i64
  %74 = getelementptr inbounds [100 x i32], [100 x i32]* %13, i64 0, i64 %73
  %75 = load i32, i32* %74, align 4
  %76 = call i32 (i8*, ...) @printf(i8* getelementptr inbounds ([4 x i8], [4 x i8]* @.str.2, i64 0, i64 0), i32 %75)
  br label %77

77:                                               ; preds = %71
  %78 = load i32, i32* %11, align 4
  %79 = add nsw i32 %78, 1
  store i32 %79, i32* %11, align 4
  br label %66

80:                                               ; preds = %66
  %81 = load i32, i32* %10, align 4
  %82 = sub nsw i32 %81, 1
  %83 = sext i32 %82 to i64
  %84 = getelementptr inbounds [100 x i32], [100 x i32]* %13, i64 0, i64 %83
  %85 = load i32, i32* %84, align 4
  %86 = call i32 (i8*, ...) @printf(i8* getelementptr inbounds ([3 x i8], [3 x i8]* @.str.1, i64 0, i64 0), i32 %85)
  ret i32 0
}

declare dso_local i32 @__isoc99_scanf(i8*, ...) #1

declare dso_local i32 @printf(i8*, ...) #1


!llvm.module.flags = !{!0}
!llvm.ident = !{!1}

!0 = !{i32 1, !"wchar_size", i32 4}
!1 = !{!"clang version 10.0.0-4ubuntu1 "}
